target datalayout = "e-m:e-p270:32:32-p271:32:32-p272:64:64-i64:64-i128:128-f80:128-n8:16:32:64-S128"
target triple = "x86_64-pc-linux-gnu"

@libctx = internal global ptr null, align 8
@.str.14 = private unnamed_addr constant [29 x i8] c"../openssl/test/sslapitest.c\00", align 1
@cert = internal global ptr null, align 8
@privkey = internal global ptr null, align 8
@.str.156 = private unnamed_addr constant [97 x i8] c"create_ssl_ctx_pair(libctx, smeth, cmeth, min_version, max_version, &sctx, &cctx, cert, privkey)\00", align 1
@.str.157 = private unnamed_addr constant [67 x i8] c"create_ssl_objects(sctx, cctx, &serverssl, &clientssl, NULL, NULL)\00", align 1
@.str.158 = private unnamed_addr constant [60 x i8] c"create_ssl_connection(serverssl, clientssl, SSL_ERROR_NONE)\00", align 1
@.str.159 = private unnamed_addr constant [21 x i8] c"SSL_clear(serverssl)\00", align 1

; Function Attrs: nounwind uwtable
define internal i32 @execute_test_large_message(ptr noundef %0, ptr noundef %1, i32 noundef %2, i32 noundef %3, i32 noundef %4) #0 {
  %6 = alloca ptr, align 8
  %7 = alloca ptr, align 8
  %8 = alloca i32, align 4
  %9 = alloca i32, align 4
  %10 = alloca i32, align 4
  %11 = alloca ptr, align 8
  %12 = alloca ptr, align 8
  %13 = alloca ptr, align 8
  %14 = alloca ptr, align 8
  %15 = alloca i32, align 4
  store ptr %0, ptr %6, align 8, !tbaa !23
  store ptr %1, ptr %7, align 8, !tbaa !23
  store i32 %2, ptr %8, align 4, !tbaa !13
  store i32 %3, ptr %9, align 4, !tbaa !13
  store i32 %4, ptr %10, align 4, !tbaa !13
  call void @llvm.lifetime.start.p0(i64 8, ptr %11) #9
  store ptr null, ptr %11, align 8, !tbaa !19
  call void @llvm.lifetime.start.p0(i64 8, ptr %12) #9
  store ptr null, ptr %12, align 8, !tbaa !19
  call void @llvm.lifetime.start.p0(i64 8, ptr %13) #9
  store ptr null, ptr %13, align 8, !tbaa !21
  call void @llvm.lifetime.start.p0(i64 8, ptr %14) #9
  store ptr null, ptr %14, align 8, !tbaa !21
  call void @llvm.lifetime.start.p0(i64 4, ptr %15) #9
  store i32 0, ptr %15, align 4, !tbaa !13
  %16 = load ptr, ptr @libctx, align 8, !tbaa !4
  %17 = load ptr, ptr %6, align 8, !tbaa !23
  %18 = load ptr, ptr %7, align 8, !tbaa !23
  %19 = load i32, ptr %8, align 4, !tbaa !13
  %20 = load i32, ptr %9, align 4, !tbaa !13
  %21 = load ptr, ptr @cert, align 8, !tbaa !11
  %22 = load ptr, ptr @privkey, align 8, !tbaa !11
  %23 = call i32 @create_ssl_ctx_pair(ptr noundef %16, ptr noundef %17, ptr noundef %18, i32 noundef %19, i32 noundef %20, ptr noundef %12, ptr noundef %11, ptr noundef %21, ptr noundef %22)
  %24 = icmp ne i32 %23, 0
  %25 = zext i1 %24 to i32
  %26 = call i32 @test_true(ptr noundef @.str.14, i32 noundef 970, ptr noundef @.str.156, i32 noundef %25)
  %27 = icmp ne i32 %26, 0
  br i1 %27, label %29, label %28

28:                                               ; preds = %5
  br label %68

29:                                               ; preds = %5
  %30 = load i32, ptr %10, align 4, !tbaa !13
  %31 = icmp ne i32 %30, 0
  br i1 %31, label %32, label %35

32:                                               ; preds = %29
  %33 = load ptr, ptr %11, align 8, !tbaa !19
  %34 = call i64 @SSL_CTX_ctrl(ptr noundef %33, i32 noundef 41, i64 noundef 1, ptr noundef null)
  br label %35

35:                                               ; preds = %32, %29
  %36 = load ptr, ptr @libctx, align 8, !tbaa !4
  %37 = load ptr, ptr %12, align 8, !tbaa !19
  %38 = load ptr, ptr @cert, align 8, !tbaa !11
  %39 = call i32 @ssl_ctx_add_large_cert_chain(ptr noundef %36, ptr noundef %37, ptr noundef %38)
  %40 = icmp ne i32 %39, 0
  br i1 %40, label %42, label %41

41:                                               ; preds = %35
  br label %68

42:                                               ; preds = %35
  %43 = load ptr, ptr %12, align 8, !tbaa !19
  %44 = load ptr, ptr %11, align 8, !tbaa !19
  %45 = call i32 @create_ssl_objects(ptr noundef %43, ptr noundef %44, ptr noundef %14, ptr noundef %13, ptr noundef null, ptr noundef null)
  %46 = icmp ne i32 %45, 0
  %47 = zext i1 %46 to i32
  %48 = call i32 @test_true(ptr noundef @.str.14, i32 noundef 998, ptr noundef @.str.157, i32 noundef %47)
  %49 = icmp ne i32 %48, 0
  br i1 %49, label %50, label %58

50:                                               ; preds = %42
  %51 = load ptr, ptr %14, align 8, !tbaa !21
  %52 = load ptr, ptr %13, align 8, !tbaa !21
  %53 = call i32 @create_ssl_connection(ptr noundef %51, ptr noundef %52, i32 noundef 0)
  %54 = icmp ne i32 %53, 0
  %55 = zext i1 %54 to i32
  %56 = call i32 @test_true(ptr noundef @.str.14, i32 noundef 1000, ptr noundef @.str.158, i32 noundef %55)
  %57 = icmp ne i32 %56, 0
  br i1 %57, label %59, label %58

58:                                               ; preds = %50, %42
  br label %68

59:                                               ; preds = %50
  %60 = load ptr, ptr %14, align 8, !tbaa !21
  %61 = call i32 @SSL_clear(ptr noundef %60)
  %62 = icmp ne i32 %61, 0
  %63 = zext i1 %62 to i32
  %64 = call i32 @test_true(ptr noundef @.str.14, i32 noundef 1007, ptr noundef @.str.159, i32 noundef %63)
  %65 = icmp ne i32 %64, 0
  br i1 %65, label %67, label %66

66:                                               ; preds = %59
  br label %68

67:                                               ; preds = %59
  store i32 1, ptr %15, align 4, !tbaa !13
  br label %68

68:                                               ; preds = %67, %66, %58, %41, %28
  %69 = load ptr, ptr %14, align 8, !tbaa !21
  call void @SSL_free(ptr noundef %69)
  %70 = load ptr, ptr %13, align 8, !tbaa !21
  call void @SSL_free(ptr noundef %70)
  %71 = load ptr, ptr %12, align 8, !tbaa !19
  call void @SSL_CTX_free(ptr noundef %71)
  %72 = load ptr, ptr %11, align 8, !tbaa !19
  call void @SSL_CTX_free(ptr noundef %72)
  %73 = load i32, ptr %15, align 4, !tbaa !13
  call void @llvm.lifetime.end.p0(i64 4, ptr %15) #9
  call void @llvm.lifetime.end.p0(i64 8, ptr %14) #9
  call void @llvm.lifetime.end.p0(i64 8, ptr %13) #9
  call void @llvm.lifetime.end.p0(i64 8, ptr %12) #9
  call void @llvm.lifetime.end.p0(i64 8, ptr %11) #9
  ret i32 %73
}