; Function Attrs: nounwind uwtable
define internal fastcc range(i32 0, 2) i32 @execute_test_large_message(ptr noundef %0, ptr noundef %1, i32 noundef range(i32 769, 65280) %2, i32 noundef range(i32 0, 2) %3) unnamed_addr #1 {
  %5 = alloca ptr, align 8
  %6 = alloca ptr, align 8
  %7 = alloca ptr, align 8
  %8 = alloca ptr, align 8
  call void @llvm.lifetime.start.p0(i64 8, ptr nonnull %5) #24
  store ptr null, ptr %5, align 8, !tbaa !19
  call void @llvm.lifetime.start.p0(i64 8, ptr nonnull %6) #24
  store ptr null, ptr %6, align 8, !tbaa !19
  call void @llvm.lifetime.start.p0(i64 8, ptr nonnull %7) #24
  store ptr null, ptr %7, align 8, !tbaa !21
  call void @llvm.lifetime.start.p0(i64 8, ptr nonnull %8) #24
  store ptr null, ptr %8, align 8, !tbaa !21
  %9 = load ptr, ptr @libctx, align 8, !tbaa !4
  %10 = load ptr, ptr @cert, align 8, !tbaa !11
  %11 = load ptr, ptr @privkey, align 8, !tbaa !11
  %12 = call i32 @create_ssl_ctx_pair(ptr noundef %9, ptr noundef %0, ptr noundef %1, i32 noundef %2, i32 noundef 0, ptr noundef nonnull %6, ptr noundef nonnull %5, ptr noundef %10, ptr noundef %11) #24
  %13 = icmp ne i32 %12, 0
  %14 = zext i1 %13 to i32
  %15 = call i32 @test_true(ptr noundef nonnull @.str.14, i32 noundef 970, ptr noundef nonnull @.str.156, i32 noundef %14) #24
  %.not = icmp eq i32 %15, 0
  br i1 %.not, label %43, label %16

16:                                               ; preds = %4
  %.not5 = icmp eq i32 %3, 0
  br i1 %.not5, label %20, label %17

17:                                               ; preds = %16
  %18 = load ptr, ptr %5, align 8, !tbaa !19
  %19 = call i64 @SSL_CTX_ctrl(ptr noundef %18, i32 noundef 41, i64 noundef 1, ptr noundef null) #24
  br label %20

20:                                               ; preds = %17, %16
  %21 = load ptr, ptr @libctx, align 8, !tbaa !4
  %22 = load ptr, ptr %6, align 8, !tbaa !19
  %23 = load ptr, ptr @cert, align 8, !tbaa !11
  %24 = call i32 @ssl_ctx_add_large_cert_chain(ptr noundef %21, ptr noundef %22, ptr noundef %23) #24
  %.not6 = icmp eq i32 %24, 0
  br i1 %.not6, label %43, label %25

25:                                               ; preds = %20
  %26 = load ptr, ptr %6, align 8, !tbaa !19
  %27 = load ptr, ptr %5, align 8, !tbaa !19
  %28 = call i32 @create_ssl_objects(ptr noundef %26, ptr noundef %27, ptr noundef nonnull %8, ptr noundef nonnull %7, ptr noundef null, ptr noundef null) #24
  %29 = icmp ne i32 %28, 0
  %30 = zext i1 %29 to i32
  %31 = call i32 @test_true(ptr noundef nonnull @.str.14, i32 noundef 998, ptr noundef nonnull @.str.157, i32 noundef %30) #24
  %.not7 = icmp eq i32 %31, 0
  %.pre10 = load ptr, ptr %8, align 8, !tbaa !21
  br i1 %.not7, label %43, label %32

32:                                               ; preds = %25
  %33 = load ptr, ptr %7, align 8, !tbaa !21
  %34 = call i32 @create_ssl_connection(ptr noundef %.pre10, ptr noundef %33, i32 noundef 0) #24
  %35 = icmp ne i32 %34, 0
  %36 = zext i1 %35 to i32
  %37 = call i32 @test_true(ptr noundef nonnull @.str.14, i32 noundef 1000, ptr noundef nonnull @.str.158, i32 noundef %36) #24
  %.not8 = icmp eq i32 %37, 0
  %.pre11 = load ptr, ptr %8, align 8, !tbaa !21
  br i1 %.not8, label %43, label %38

38:                                               ; preds = %32
  %39 = call i32 @SSL_clear(ptr noundef %.pre11) #24
  %40 = icmp ne i32 %39, 0
  %41 = zext i1 %40 to i32
  %42 = call i32 @test_true(ptr noundef nonnull @.str.14, i32 noundef 1007, ptr noundef nonnull @.str.159, i32 noundef %41) #24
  %.not9 = icmp ne i32 %42, 0
  %spec.select = zext i1 %.not9 to i32
  %.pre = load ptr, ptr %8, align 8, !tbaa !21
  br label %43

43:                                               ; preds = %38, %25, %32, %20, %4
  %44 = phi ptr [ %.pre11, %32 ], [ %.pre10, %25 ], [ null, %20 ], [ null, %4 ], [ %.pre, %38 ]
  %.0 = phi i32 [ 0, %32 ], [ 0, %25 ], [ 0, %20 ], [ 0, %4 ], [ %spec.select, %38 ]
  call void @SSL_free(ptr noundef %44) #24
  %45 = load ptr, ptr %7, align 8, !tbaa !21
  call void @SSL_free(ptr noundef %45) #24
  %46 = load ptr, ptr %6, align 8, !tbaa !19
  call void @SSL_CTX_free(ptr noundef %46) #24
  %47 = load ptr, ptr %5, align 8, !tbaa !19
  call void @SSL_CTX_free(ptr noundef %47) #24
  call void @llvm.lifetime.end.p0(i64 8, ptr nonnull %8) #24
  call void @llvm.lifetime.end.p0(i64 8, ptr nonnull %7) #24
  call void @llvm.lifetime.end.p0(i64 8, ptr nonnull %6) #24
  call void @llvm.lifetime.end.p0(i64 8, ptr nonnull %5) #24
  ret i32 %.0
}